; Function Attrs: mustprogress uwtable
define void @_ZN5boost9unit_test19results_collector_t10test_startEmm(ptr nocapture nonnull readnone align 8 %0, i64 %1, i64 noundef %2) unnamed_addr #8 align 2 personality ptr @__gxx_personality_v0 {
  %4 = alloca %"class.boost::unit_test::(anonymous namespace)::clear_subtree_result", align 8
  call void @llvm.lifetime.start.p0(i64 16, ptr nonnull %4) #20
  %5 = load atomic i8, ptr @_ZGVZN5boost9unit_test12_GLOBAL__N_19s_rc_implEvE8the_inst acquire, align 8
  %6 = icmp eq i8 %5, 0
  br i1 %6, label %7, label %_ZN5boost9unit_test12_GLOBAL__N_19s_rc_implEv.exit, !prof !3

7:                                                ; preds = %3
  %8 = tail call i32 @__cxa_guard_acquire(ptr nonnull @_ZGVZN5boost9unit_test12_GLOBAL__N_19s_rc_implEvE8the_inst) #20
  %.not.i = icmp eq i32 %8, 0
  br i1 %.not.i, label %_ZN5boost9unit_test12_GLOBAL__N_19s_rc_implEv.exit, label %9

9:                                                ; preds = %7
  store i32 0, ptr getelementptr inbounds (i8, ptr @_ZZN5boost9unit_test12_GLOBAL__N_19s_rc_implEvE8the_inst, i64 8), align 8, !tbaa !16
  store ptr null, ptr getelementptr inbounds (i8, ptr @_ZZN5boost9unit_test12_GLOBAL__N_19s_rc_implEvE8the_inst, i64 16), align 8, !tbaa !21
  store ptr getelementptr inbounds (i8, ptr @_ZZN5boost9unit_test12_GLOBAL__N_19s_rc_implEvE8the_inst, i64 8), ptr getelementptr inbounds (i8, ptr @_ZZN5boost9unit_test12_GLOBAL__N_19s_rc_implEvE8the_inst, i64 24), align 8, !tbaa !22
  store ptr getelementptr inbounds (i8, ptr @_ZZN5boost9unit_test12_GLOBAL__N_19s_rc_implEvE8the_inst, i64 8), ptr getelementptr inbounds (i8, ptr @_ZZN5boost9unit_test12_GLOBAL__N_19s_rc_implEvE8the_inst, i64 32), align 8, !tbaa !23
  store i64 0, ptr getelementptr inbounds (i8, ptr @_ZZN5boost9unit_test12_GLOBAL__N_19s_rc_implEvE8the_inst, i64 40), align 8, !tbaa !24
  %10 = tail call i32 @__cxa_atexit(ptr nonnull @_ZN5boost9unit_test12_GLOBAL__N_122results_collector_implD2Ev, ptr nonnull @_ZZN5boost9unit_test12_GLOBAL__N_19s_rc_implEvE8the_inst, ptr nonnull @__dso_handle) #20
  tail call void @__cxa_guard_release(ptr nonnull @_ZGVZN5boost9unit_test12_GLOBAL__N_19s_rc_implEvE8the_inst) #20
  br label %_ZN5boost9unit_test12_GLOBAL__N_19s_rc_implEv.exit

_ZN5boost9unit_test12_GLOBAL__N_19s_rc_implEv.exit: ; preds = %3, %7, %9
  store ptr getelementptr inbounds inrange(-16, 48) (i8, ptr @_ZTVN5boost9unit_test12_GLOBAL__N_120clear_subtree_resultE, i64 16), ptr %4, align 8, !tbaa !25
  %11 = getelementptr inbounds nuw i8, ptr %4, i64 8
  store ptr @_ZZN5boost9unit_test12_GLOBAL__N_19s_rc_implEvE8the_inst, ptr %11, align 8, !tbaa !27
  call void @_ZN5boost9unit_test18traverse_test_treeEmRNS0_17test_tree_visitorEb(i64 noundef %2, ptr noundef nonnull align 8 dereferenceable(8) %4, i1 noundef zeroext false)
  call void @llvm.lifetime.end.p0(i64 16, ptr nonnull %4) #20
  ret void
}